target datalayout = "e-m:e-p270:32:32-p271:32:32-p272:64:64-i64:64-i128:128-f80:128-n8:16:32:64-S128"
target triple = "x86_64-pc-linux-gnu"

; Function Attrs: nounwind uwtable
define dso_local ptr @get_ip(ptr noundef %0) #0 {
  %2 = alloca ptr, align 8
  %3 = alloca ptr, align 8
  %4 = alloca ptr, align 8
  %5 = alloca ptr, align 8
  %6 = alloca i32, align 4
  store ptr %0, ptr %3, align 8
  store ptr null, ptr %4, align 8
  store ptr null, ptr %5, align 8
  %7 = load ptr, ptr %3, align 8
  %8 = call noalias ptr @strdup(ptr noundef %7) #13
  store ptr %8, ptr %4, align 8
  %9 = load ptr, ptr %4, align 8
  %10 = icmp ne ptr %9, null
  br i1 %10, label %12, label %11

11:                                               ; preds = %1
  store ptr null, ptr %2, align 8
  br label %52

12:                                               ; preds = %1
  %13 = load ptr, ptr %4, align 8
  %14 = getelementptr inbounds i8, ptr %13, i64 0
  %15 = load i8, ptr %14, align 1
  %16 = sext i8 %15 to i32
  %17 = icmp eq i32 %16, 91
  br i1 %17, label %18, label %32

18:                                               ; preds = %12
  %19 = load ptr, ptr %4, align 8
  %20 = call ptr @strchr(ptr noundef %19, i32 noundef 93) #14
  store ptr %20, ptr %5, align 8
  %21 = load ptr, ptr %5, align 8
  %22 = icmp ne ptr %21, null
  br i1 %22, label %25, label %23

23:                                               ; preds = %18
  %24 = load ptr, ptr %4, align 8
  call void @free(ptr noundef %24) #13
  store ptr null, ptr %2, align 8
  br label %52

25:                                               ; preds = %18
  %26 = load ptr, ptr %5, align 8
  store i8 0, ptr %26, align 1
  %27 = load ptr, ptr %4, align 8
  %28 = getelementptr inbounds i8, ptr %27, i64 1
  %29 = call noalias ptr @strdup(ptr noundef %28) #13
  store ptr %29, ptr %5, align 8
  %30 = load ptr, ptr %4, align 8
  call void @free(ptr noundef %30) #13
  store ptr null, ptr %4, align 8
  %31 = load ptr, ptr %5, align 8
  store ptr %31, ptr %2, align 8
  br label %52

32:                                               ; preds = %12
  %33 = load ptr, ptr %4, align 8
  store ptr %33, ptr %5, align 8
  store i32 0, ptr %6, align 4
  br label %34

34:                                               ; preds = %38, %32
  %35 = load ptr, ptr %5, align 8
  %36 = call ptr @strchr(ptr noundef %35, i32 noundef 58) #14
  store ptr %36, ptr %5, align 8
  %37 = icmp ne ptr %36, null
  br i1 %37, label %38, label %43

38:                                               ; preds = %34
  %39 = load i32, ptr %6, align 4
  %40 = add i32 %39, 1
  store i32 %40, ptr %6, align 4
  %41 = load ptr, ptr %5, align 8
  %42 = getelementptr inbounds i8, ptr %41, i32 1
  store ptr %42, ptr %5, align 8
  br label %34

43:                                               ; preds = %34
  %44 = load i32, ptr %6, align 4
  %45 = icmp eq i32 %44, 1
  br i1 %45, label %46, label %50

46:                                               ; preds = %43
  %47 = load ptr, ptr %4, align 8
  %48 = call ptr @strchr(ptr noundef %47, i32 noundef 58) #14
  store ptr %48, ptr %5, align 8
  %49 = load ptr, ptr %5, align 8
  store i8 0, ptr %49, align 1
  br label %50

50:                                               ; preds = %46, %43
  %51 = load ptr, ptr %4, align 8
  store ptr %51, ptr %2, align 8
  br label %52

52:                                               ; preds = %50, %25, %23, %11
  %53 = load ptr, ptr %2, align 8
  ret ptr %53
}