; Function Attrs: nounwind uwtable
define dso_local ptr @get_ip(ptr nocapture noundef readonly %0) local_unnamed_addr #0 {
  %2 = tail call noalias ptr @strdup(ptr noundef %0) #25
  %.not = icmp eq ptr %2, null
  br i1 %.not, label %._crit_edge.thread, label %3

3:                                                ; preds = %1
  %4 = load i8, ptr %2, align 1
  %5 = icmp eq i8 %4, 91
  br i1 %5, label %7, label %.preheader

.preheader:                                       ; preds = %3
  %6 = tail call ptr @strchr(ptr noundef nonnull dereferenceable(1) %2, i32 noundef 58) #26
  %.not2325 = icmp eq ptr %6, null
  br i1 %.not2325, label %._crit_edge.thread, label %.lr.ph

7:                                                ; preds = %3
  %8 = tail call ptr @strchr(ptr noundef nonnull dereferenceable(1) %2, i32 noundef 93) #26
  %.not24 = icmp eq ptr %8, null
  br i1 %.not24, label %9, label %10

9:                                                ; preds = %7
  tail call void @free(ptr noundef nonnull %2) #25
  br label %._crit_edge.thread

10:                                               ; preds = %7
  store i8 0, ptr %8, align 1
  %11 = getelementptr inbounds i8, ptr %2, i64 1
  %12 = tail call noalias ptr @strdup(ptr noundef nonnull %11) #25
  tail call void @free(ptr noundef nonnull %2) #25
  br label %._crit_edge.thread

.lr.ph:                                           ; preds = %.preheader, %.lr.ph
  %13 = phi ptr [ %16, %.lr.ph ], [ %6, %.preheader ]
  %.026 = phi i32 [ %14, %.lr.ph ], [ 0, %.preheader ]
  %14 = add i32 %.026, 1
  %15 = getelementptr inbounds i8, ptr %13, i64 1
  %16 = tail call ptr @strchr(ptr noundef nonnull dereferenceable(1) %15, i32 noundef 58) #26
  %.not23 = icmp eq ptr %16, null
  br i1 %.not23, label %._crit_edge, label %.lr.ph

._crit_edge:                                      ; preds = %.lr.ph
  %17 = icmp eq i32 %.026, 0
  br i1 %17, label %18, label %._crit_edge.thread

18:                                               ; preds = %._crit_edge
  store i8 0, ptr %6, align 1
  br label %._crit_edge.thread

._crit_edge.thread:                               ; preds = %.preheader, %._crit_edge, %18, %1, %10, %9
  %.019 = phi ptr [ %12, %10 ], [ null, %9 ], [ null, %1 ], [ %2, %18 ], [ %2, %._crit_edge ], [ %2, %.preheader ]
  ret ptr %.019
}